CCS PCM C Compiler, Version 5.112, 5967               12-Ara-23 14:29

               Filename:   C:\Users\Administrator\Desktop\notes\3_Sinif\1_Donem\Mikroislemciler\lab\lab 8\ccs\pwm2\pwm2.lst

               ROM used:   52 words (1%)
                           Largest free fragment is 2048
               RAM used:   5 (1%) at main() level
                           5 (1%) worst case
               Stack used: 0 locations
               Stack size: 8

*
0000:  MOVLW  00
0001:  MOVWF  0A
0002:  GOTO   004
0003:  NOP
.................... #include <16f877.h>
.................... //////////// Standard Header file for the PIC16F877 device ////////////////
.................... ///////////////////////////////////////////////////////////////////////////
.................... ////        (C) Copyright 1996, 2020 Custom Computer Services          ////
.................... //// This source code may only be used by licensed users of the CCS C  ////
.................... //// compiler.  This source code may only be distributed to other      ////
.................... //// licensed users of the CCS C compiler.  No other use, reproduction ////
.................... //// or distribution is permitted without written permission.          ////
.................... //// Derivative programs created using this software in object code    ////
.................... //// form are not restricted in any way.                               ////
.................... ///////////////////////////////////////////////////////////////////////////
.................... #device PIC16F877
.................... 
.................... #list
.................... 
.................... #fuses XT, NOWDT, NOPROTECT, NOBROWNOUT, NOLVP, NOPUT, NOWRT, NODEBUG, NOCPD
.................... #use delay(clock = 500000)
.................... #use fast_io(b)
.................... #use fast_io(c)
.................... void main()
0004:  MOVF   03,W
0005:  ANDLW  1F
0006:  MOVWF  03
0007:  BSF    03.5
0008:  BSF    1F.0
0009:  BSF    1F.1
000A:  BSF    1F.2
000B:  BCF    1F.3
000C:  BCF    03.7
.................... {
....................     setup_psp(PSP_DISABLED);     // PSP devre disi
000D:  BCF    09.4
....................     setup_spi(SPI_SS_DISABLED);  // SPI devre disi
000E:  BCF    03.5
000F:  BCF    14.5
0010:  MOVLW  01
0011:  MOVWF  14
0012:  MOVLW  00
0013:  BSF    03.5
0014:  MOVWF  14
....................     setup_timer_1(T1_DISABLED);  // T1 devre disi
0015:  BCF    03.5
0016:  CLRF   10
....................     setup_adc_ports(NO_ANALOGS); // analog giris yok
0017:  BSF    03.5
0018:  BSF    1F.0
0019:  BSF    1F.1
001A:  BSF    1F.2
001B:  BCF    1F.3
....................     setup_adc(ADC_OFF);          // ADC kapali
001C:  BCF    03.5
001D:  BCF    1F.0
....................     setup_CCP2(CCP_OFF);         // CCP2 devredisi
001E:  MOVLW  F0
001F:  ANDWF  1D,F
.................... 
....................     set_tris_b(0x00);
0020:  MOVLW  00
0021:  BSF    03.5
0022:  MOVWF  06
....................     set_tris_c(0x00);
0023:  MOVWF  07
....................     output_b(0x00);
0024:  BCF    03.5
0025:  CLRF   06
.................... 
....................     setup_timer_2(T2_DIV_BY_16, 156, 1);
0026:  MOVWF  78
0027:  IORLW  06
0028:  MOVWF  12
0029:  MOVLW  9C
002A:  BSF    03.5
002B:  MOVWF  12
....................     setup_ccp1(CCP_PWM);
002C:  BCF    03.5
002D:  BCF    07.2
002E:  MOVLW  0C
002F:  MOVWF  17
....................     set_pwm1_duty(15);
0030:  MOVLW  0F
0031:  MOVWF  15
.................... 
....................     while (1)
....................     {
0032:  GOTO   032
....................     }
.................... }
0033:  SLEEP

Configuration Fuses:
   Word  1: 3F39   XT NOWDT NOPUT NOBROWNOUT NOLVP NOCPD NOWRT NODEBUG NOPROTECT
