CCS PCM C Compiler, Version 5.112, 5967               18-Kas-23 23:54

               Filename:   C:\Users\Administrator\Desktop\notes\3_Sinif\1_Donem\Mikroislemciler\lab\lab 6\ccs\kesme\kesme.lst

               ROM used:   116 words (1%)
                           Largest free fragment is 2048
               RAM used:   13 (4%) at main() level
                           13 (4%) worst case
               Stack used: 1 locations (0 in main + 1 for interrupts)
               Stack size: 8

*
0000:  MOVLW  00
0001:  MOVWF  0A
0002:  GOTO   035
0003:  NOP
0004:  MOVWF  7F
0005:  SWAPF  03,W
0006:  CLRF   03
0007:  MOVWF  21
0008:  MOVF   0A,W
0009:  MOVWF  20
000A:  CLRF   0A
000B:  MOVF   04,W
000C:  MOVWF  22
000D:  MOVF   77,W
000E:  MOVWF  23
000F:  MOVF   78,W
0010:  MOVWF  24
0011:  MOVF   79,W
0012:  MOVWF  25
0013:  MOVF   7A,W
0014:  MOVWF  26
0015:  BCF    03.7
0016:  BCF    03.5
0017:  BTFSS  0B.4
0018:  GOTO   01B
0019:  BTFSC  0B.1
001A:  GOTO   02C
001B:  MOVF   22,W
001C:  MOVWF  04
001D:  MOVF   23,W
001E:  MOVWF  77
001F:  MOVF   24,W
0020:  MOVWF  78
0021:  MOVF   25,W
0022:  MOVWF  79
0023:  MOVF   26,W
0024:  MOVWF  7A
0025:  MOVF   20,W
0026:  MOVWF  0A
0027:  SWAPF  21,W
0028:  MOVWF  03
0029:  SWAPF  7F,F
002A:  SWAPF  7F,W
002B:  RETFIE
002C:  BCF    0A.3
002D:  BCF    0A.4
002E:  GOTO   02F
.................... #include <16f877.h>
.................... //////////// Standard Header file for the PIC16F877 device ////////////////
.................... ///////////////////////////////////////////////////////////////////////////
.................... ////        (C) Copyright 1996, 2020 Custom Computer Services          ////
.................... //// This source code may only be used by licensed users of the CCS C  ////
.................... //// compiler.  This source code may only be distributed to other      ////
.................... //// licensed users of the CCS C compiler.  No other use, reproduction ////
.................... //// or distribution is permitted without written permission.          ////
.................... //// Derivative programs created using this software in object code    ////
.................... //// form are not restricted in any way.                               ////
.................... ///////////////////////////////////////////////////////////////////////////
.................... #device PIC16F877
.................... 
.................... #list
.................... 
.................... #fuses XT, NOWDT, NOPROTECT, NOBROWNOUT, , NOLVP, NOPUT, NOWRT, NODEBUG, NOCPD
.................... #use delay(clock = 4000000)
.................... #use fast_io(b)
.................... //****** Dis Kesme Fonksiyonu *****************
.................... #int_ext		   // Dis (External) RBO/INT kesmesi
.................... void ext_kesmesi() // Dis kesme fonksiyonu
.................... {
.................... 	output_toggle(pin_b1);
002F:  MOVLW  02
0030:  XORWF  06,F
0031:  BCF    0B.1
0032:  BCF    0A.3
0033:  BCF    0A.4
0034:  GOTO   01B
.................... }
.................... //********* ANA PROGRAM FONKSIYONU********
.................... void main()
0035:  MOVF   03,W
0036:  ANDLW  1F
0037:  MOVWF  03
0038:  MOVLW  FF
0039:  MOVWF  27
003A:  BSF    03.5
003B:  BSF    1F.0
003C:  BSF    1F.1
003D:  BSF    1F.2
003E:  BCF    1F.3
003F:  BCF    03.7
.................... {
.................... 	setup_psp(PSP_DISABLED);		  // PSP devre disi
0040:  BCF    09.4
.................... 	setup_spi(SPI_SS_DISABLED);		  // SPI devre disi
0041:  BCF    03.5
0042:  BCF    14.5
0043:  BCF    27.5
0044:  MOVF   27,W
0045:  BSF    03.5
0046:  MOVWF  07
0047:  BCF    03.5
0048:  BSF    27.4
0049:  MOVF   27,W
004A:  BSF    03.5
004B:  MOVWF  07
004C:  BCF    03.5
004D:  BCF    27.3
004E:  MOVF   27,W
004F:  BSF    03.5
0050:  MOVWF  07
0051:  MOVLW  01
0052:  BCF    03.5
0053:  MOVWF  14
0054:  MOVLW  00
0055:  BSF    03.5
0056:  MOVWF  14
.................... 	setup_timer_1(T1_DISABLED);		  // T1 devre disi
0057:  BCF    03.5
0058:  CLRF   10
.................... 	setup_timer_2(T2_DISABLED, 0, 1); // T2 devre disi
0059:  MOVWF  78
005A:  MOVWF  12
005B:  MOVLW  00
005C:  BSF    03.5
005D:  MOVWF  12
.................... 	setup_adc_ports(NO_ANALOGS);	  // analog giris yok
005E:  BSF    1F.0
005F:  BSF    1F.1
0060:  BSF    1F.2
0061:  BCF    1F.3
.................... 	setup_adc(ADC_OFF);				  // ADC kapali
0062:  BCF    03.5
0063:  BCF    1F.0
.................... 	setup_CCP1(CCP_OFF);			  // CCP1 devre disi
0064:  MOVLW  F0
0065:  ANDWF  17,F
.................... 	setup_CCP2(CCP_OFF);			  // CCP2 devredisi
0066:  ANDWF  1D,F
.................... 
.................... 	set_tris_b(0x01); // RB0 portu giris diger bütün pinler cikis
0067:  MOVLW  01
0068:  BSF    03.5
0069:  MOVWF  06
.................... 	output_b(0x00);
006A:  BCF    03.5
006B:  CLRF   06
.................... 
.................... 	ext_int_edge(L_TO_H); // INT_EXT kesmesi yükselen kenarda aktif
006C:  BSF    03.5
006D:  BSF    01.6
.................... 
.................... 	enable_interrupts(INT_EXT); // INT_EXT (RB0) kesmesi aktif
006E:  BCF    03.5
006F:  BSF    0B.4
.................... 	enable_interrupts(GLOBAL);	// Aktif edilen sekmelere izin ver
0070:  MOVLW  C0
0071:  IORWF  0B,F
.................... 
.................... 	while (1)
.................... 	{
0072:  GOTO   072
.................... 	}
.................... }
0073:  SLEEP

Configuration Fuses:
   Word  1: 3F39   XT NOWDT NOPUT NOBROWNOUT NOLVP NOCPD NOWRT NODEBUG NOPROTECT
