CCS PCM C Compiler, Version 5.112, 5967               05-Ara-23 14:35

               Filename:   C:\Users\Administrator\Desktop\notes\3_Sinif\1_Donem\Mikroislemciler\lab\lab 7\ccs\timer1\timer1.lst

               ROM used:   128 words (2%)
                           Largest free fragment is 2048
               RAM used:   13 (4%) at main() level
                           13 (4%) worst case
               Stack used: 1 locations (0 in main + 1 for interrupts)
               Stack size: 8

*
0000:  MOVLW  00
0001:  MOVWF  0A
0002:  GOTO   03C
0003:  NOP
0004:  MOVWF  7F
0005:  SWAPF  03,W
0006:  CLRF   03
0007:  MOVWF  21
0008:  MOVF   0A,W
0009:  MOVWF  20
000A:  CLRF   0A
000B:  MOVF   04,W
000C:  MOVWF  22
000D:  MOVF   77,W
000E:  MOVWF  23
000F:  MOVF   78,W
0010:  MOVWF  24
0011:  MOVF   79,W
0012:  MOVWF  25
0013:  MOVF   7A,W
0014:  MOVWF  26
0015:  BCF    03.7
0016:  BCF    03.5
0017:  MOVLW  8C
0018:  MOVWF  04
0019:  BTFSS  00.0
001A:  GOTO   01D
001B:  BTFSC  0C.0
001C:  GOTO   02E
001D:  MOVF   22,W
001E:  MOVWF  04
001F:  MOVF   23,W
0020:  MOVWF  77
0021:  MOVF   24,W
0022:  MOVWF  78
0023:  MOVF   25,W
0024:  MOVWF  79
0025:  MOVF   26,W
0026:  MOVWF  7A
0027:  MOVF   20,W
0028:  MOVWF  0A
0029:  SWAPF  21,W
002A:  MOVWF  03
002B:  SWAPF  7F,F
002C:  SWAPF  7F,W
002D:  RETFIE
002E:  BCF    0A.3
002F:  BCF    0A.4
0030:  GOTO   031
.................... #include <16f877.h>
.................... //////////// Standard Header file for the PIC16F877 device ////////////////
.................... ///////////////////////////////////////////////////////////////////////////
.................... ////        (C) Copyright 1996, 2020 Custom Computer Services          ////
.................... //// This source code may only be used by licensed users of the CCS C  ////
.................... //// compiler.  This source code may only be distributed to other      ////
.................... //// licensed users of the CCS C compiler.  No other use, reproduction ////
.................... //// or distribution is permitted without written permission.          ////
.................... //// Derivative programs created using this software in object code    ////
.................... //// form are not restricted in any way.                               ////
.................... ///////////////////////////////////////////////////////////////////////////
.................... #device PIC16F877
.................... 
.................... #list
.................... 
.................... #fuses XT, NOWDT, NOPROTECT, NOBROWNOUT, NOLVP, NOPUT, NOWRT, NODEBUG, NOCPD
.................... #use delay(clock = 4000000)
.................... #use fast_io(b)
.................... //****** Dis Kesme Fonksiyonu *****************
.................... #INT_TIMER1
.................... void timer1_kesme()
.................... {
....................     set_timer1(65535); // Timer1 değeri ayarlandı (65536 - x)
0031:  CLRF   0E
0032:  MOVLW  FF
0033:  MOVWF  0F
0034:  MOVWF  0E
0035:  NOP
....................     output_toggle(PIN_B0);
0036:  MOVLW  01
0037:  XORWF  06,F
0038:  BCF    0C.0
0039:  BCF    0A.3
003A:  BCF    0A.4
003B:  GOTO   01D
.................... }
.................... //********* ANA PROGRAM FONKSIYONU********
.................... void main()
003C:  MOVF   03,W
003D:  ANDLW  1F
003E:  MOVWF  03
003F:  MOVLW  FF
0040:  MOVWF  27
0041:  BSF    03.5
0042:  BSF    1F.0
0043:  BSF    1F.1
0044:  BSF    1F.2
0045:  BCF    1F.3
0046:  BCF    03.7
.................... {
....................     setup_psp(PSP_DISABLED);          // PSP devre disi
0047:  BCF    09.4
....................     setup_spi(SPI_SS_DISABLED);       // SPI devre disi
0048:  BCF    03.5
0049:  BCF    14.5
004A:  BCF    27.5
004B:  MOVF   27,W
004C:  BSF    03.5
004D:  MOVWF  07
004E:  BCF    03.5
004F:  BSF    27.4
0050:  MOVF   27,W
0051:  BSF    03.5
0052:  MOVWF  07
0053:  BCF    03.5
0054:  BCF    27.3
0055:  MOVF   27,W
0056:  BSF    03.5
0057:  MOVWF  07
0058:  MOVLW  01
0059:  BCF    03.5
005A:  MOVWF  14
005B:  MOVLW  00
005C:  BSF    03.5
005D:  MOVWF  14
....................     setup_timer_2(T2_DISABLED, 0, 1); // T2 devre disi
005E:  MOVWF  78
005F:  BCF    03.5
0060:  MOVWF  12
0061:  MOVLW  00
0062:  BSF    03.5
0063:  MOVWF  12
....................     setup_adc_ports(NO_ANALOGS);      // analog giris yok
0064:  BSF    1F.0
0065:  BSF    1F.1
0066:  BSF    1F.2
0067:  BCF    1F.3
....................     setup_adc(ADC_OFF);               // ADC kapali
0068:  BCF    03.5
0069:  BCF    1F.0
....................     setup_CCP1(CCP_OFF);              // CCP1 devre disi
006A:  MOVLW  F0
006B:  ANDWF  17,F
....................     setup_CCP2(CCP_OFF);              // CCP2 devredisi
006C:  ANDWF  1D,F
.................... 
....................     set_tris_b(0x00);
006D:  MOVLW  00
006E:  BSF    03.5
006F:  MOVWF  06
....................     output_b(0x00);
0070:  BCF    03.5
0071:  CLRF   06
.................... 
....................     setup_timer_1(T1_EXTERNAL | T1_DIV_BY_4); // T1 harici sayma modu, bölme oranı 1:4
0072:  MOVLW  A7
0073:  MOVWF  10
....................     set_timer1(65535); // Timer1 değeri ayarlandı (65536 - x)
0074:  CLRF   0E
0075:  MOVLW  FF
0076:  MOVWF  0F
0077:  MOVWF  0E
0078:  NOP
.................... 
....................     enable_interrupts(INT_TIMER1);
0079:  BSF    03.5
007A:  BSF    0C.0
....................     enable_interrupts(GLOBAL);
007B:  MOVLW  C0
007C:  BCF    03.5
007D:  IORWF  0B,F
....................     while (1)
....................     {
007E:  GOTO   07E
....................     }
.................... }
007F:  SLEEP

Configuration Fuses:
   Word  1: 3F39   XT NOWDT NOPUT NOBROWNOUT NOLVP NOCPD NOWRT NODEBUG NOPROTECT
